(dp1
S'OriginalConfig'
p2
ccopy_reg
_reconstructor
p3
(cWMCore.Configuration
Configuration
p4
c__builtin__
object
p5
NtRp6
(dp7
S'Site'
p8
g3
(cWMCore.Configuration
ConfigSection
p9
g5
NtRp10
(dp11
S'_internal_skipChecks'
p12
I00
sS'_internal_documentation'
p13
S''
sS'_internal_settings'
p14
c__builtin__
set
p15
((lp16
S'storageSite'
p17
atRp18
sS'_internal_name'
p19
g8
sS'_internal_docstrings'
p20
(dp21
sS'_internal_children'
p22
g15
((ltRp23
sg17
S'T2_CH_CERN'
p24
sS'_internal_parent_ref'
p25
NsbsS'_internal_sections'
p26
(lp27
S'General'
p28
aS'JobType'
p29
aS'Data'
p30
ag8
aS'User'
p31
aS'Debug'
p32
asg28
g3
(g9
g5
NtRp33
(dp34
S'transferLogs'
p35
I01
sg12
I00
sg13
S''
sg14
g15
((lp36
g35
aS'transferOutputs'
p37
aS'workArea'
p38
aS'requestName'
p39
atRp40
sg19
g28
sg20
(dp41
sg37
I01
sg22
g15
((ltRp42
sg39
S'WplusToJJZTo2LJJ_VBS_Herwig7'
p43
sg25
Nsg38
S'crab_projects'
p44
sbsS'_internal_webapps'
p45
(lp46
sg31
g3
(g9
g5
NtRp47
(dp48
g12
I00
sg13
S''
sg14
g15
((ltRp49
sg19
g31
sg20
(dp50
sg22
g15
((ltRp51
sg25
NsbsS'_internal_components'
p52
(lp53
sg32
g3
(g9
g5
NtRp54
(dp55
g12
I00
sg13
S''
sg14
g15
((ltRp56
sg19
g32
sg20
(dp57
sg22
g15
((ltRp58
sg25
Nsbsg30
g3
(g9
g5
NtRp59
(dp60
S'outputDatasetTag'
p61
S'RunIISummer15wmLHEGS'
p62
sg12
I00
sS'unitsPerJob'
p63
I5000
sg13
S''
sg14
g15
((lp64
g61
aS'publication'
p65
ag63
aS'splitting'
p66
aS'outLFNDirBase'
p67
aS'outputPrimaryDataset'
p68
aS'totalUnits'
p69
atRp70
sg67
S'/store/group/phys_smp/VJets_NLO_VBSanalyses/Samples/NanoGEN'
p71
sg19
g30
sg66
S'EventBased'
p72
sg20
(dp73
sg22
g15
((ltRp74
sg65
I00
sg68
g43
sg25
Nsg69
I150000
sbsg29
g3
(g9
g5
NtRp75
(dp76
S'numCores'
p77
I1
sg12
I00
sg13
S''
sg14
g15
((lp78
S'psetName'
p79
aS'pluginName'
p80
ag77
aS'allowUndistributedCMSSW'
p81
aS'eventsPerLumi'
p82
atRp83
sg19
g29
sg20
(dp84
sg80
S'PrivateMC'
p85
sg22
g15
((ltRp86
sg81
I01
sg79
S'../configs/WplusToJJZTo2LJJ_VBS_Herwig7.py'
p87
sg25
Nsg82
I5000
sbsbsS'voGroup'
p88
S''
sS'Server'
p89
S'cmsweb-k8s-prod.cern.ch'
p90
sS'instance'
p91
S'prod'
p92
sS'RequestName'
p93
V210211_130046:dvalsecc_crab_WplusToJJZTo2LJJ_VBS_Herwig7
p94
sS'voRole'
p95
S'NULL'
p96
sS'Port'
p97
S''
s.